target datalayout = "e-m:e-p270:32:32-p271:32:32-p272:64:64-i64:64-i128:128-f80:128-n8:16:32:64-S128"
target triple = "x86_64-pc-linux-gnu"

%struct.HTTPAuthState = type { i32, [200 x i8], %struct.DigestParams, i32 }
%struct.DigestParams = type { [300 x i8], [10 x i8], [30 x i8], [300 x i8], [10 x i8], i32 }

@.str.15 = private unnamed_addr constant [11 x i8] c"nextnonce=\00", align 1

; Function Attrs: nounwind uwtable
define internal void @handle_digest_update(ptr noundef %0, ptr noundef %1, i32 noundef %2, ptr noundef %3, ptr noundef %4) #0 {
  %6 = alloca ptr, align 8
  %7 = alloca ptr, align 8
  %8 = alloca i32, align 4
  %9 = alloca ptr, align 8
  %10 = alloca ptr, align 8
  %11 = alloca ptr, align 8
  store ptr %0, ptr %6, align 8, !tbaa !4
  store ptr %1, ptr %7, align 8, !tbaa !9
  store i32 %2, ptr %8, align 4, !tbaa !17
  store ptr %3, ptr %9, align 8, !tbaa !18
  store ptr %4, ptr %10, align 8, !tbaa !21
  call void @llvm.lifetime.start.p0(i64 8, ptr %11) #8
  %12 = load ptr, ptr %6, align 8, !tbaa !4
  %13 = getelementptr inbounds nuw %struct.HTTPAuthState, ptr %12, i32 0, i32 2
  store ptr %13, ptr %11, align 8, !tbaa !23
  %14 = load ptr, ptr %7, align 8, !tbaa !9
  %15 = load i32, ptr %8, align 4, !tbaa !17
  %16 = sext i32 %15 to i64
  %17 = call i32 @strncmp(ptr noundef %14, ptr noundef @.str.15, i64 noundef %16) #9
  %18 = icmp ne i32 %17, 0
  br i1 %18, label %25, label %19

19:                                               ; preds = %5
  %20 = load ptr, ptr %11, align 8, !tbaa !23
  %21 = getelementptr inbounds nuw %struct.DigestParams, ptr %20, i32 0, i32 0
  %22 = getelementptr inbounds [300 x i8], ptr %21, i64 0, i64 0
  %23 = load ptr, ptr %9, align 8, !tbaa !18
  store ptr %22, ptr %23, align 8, !tbaa !9
  %24 = load ptr, ptr %10, align 8, !tbaa !21
  store i32 300, ptr %24, align 4, !tbaa !17
  br label %25

25:                                               ; preds = %19, %5
  call void @llvm.lifetime.end.p0(i64 8, ptr %11) #8
  ret void
}