; Function Attrs: mustprogress nofree norecurse nounwind willreturn memory(argmem: readwrite) uwtable
define internal void @handle_digest_update(ptr noundef %0, ptr noundef readonly captures(none) %1, i32 noundef %2, ptr noundef writeonly captures(none) %3, ptr noundef writeonly captures(none) %4) #3 {
  %6 = sext i32 %2 to i64
  %7 = tail call i32 @strncmp(ptr noundef %1, ptr noundef nonnull @.str.15, i64 noundef %6) #9
  %.not = icmp eq i32 %7, 0
  br i1 %.not, label %8, label %10

8:                                                ; preds = %5
  %9 = getelementptr inbounds nuw i8, ptr %0, i64 204
  store ptr %9, ptr %3, align 8, !tbaa !12
  store i32 300, ptr %4, align 4, !tbaa !15
  br label %10

10:                                               ; preds = %8, %5
  ret void
}